ARM GAS  /tmp/ccN1ozZs.s 			page 1


   1              		.cpu cortex-m3
   2              		.eabi_attribute 20, 1
   3              		.eabi_attribute 21, 1
   4              		.eabi_attribute 23, 3
   5              		.eabi_attribute 24, 1
   6              		.eabi_attribute 25, 1
   7              		.eabi_attribute 26, 1
   8              		.eabi_attribute 30, 1
   9              		.eabi_attribute 34, 1
  10              		.eabi_attribute 18, 4
  11              		.file	"stm32f1xx_hal_msp.c"
  12              		.text
  13              	.Ltext0:
  14              		.cfi_sections	.debug_frame
  15              		.section	.text.HAL_MspInit,"ax",%progbits
  16              		.align	1
  17              		.global	HAL_MspInit
  18              		.arch armv7-m
  19              		.syntax unified
  20              		.thumb
  21              		.thumb_func
  22              		.fpu softvfp
  24              	HAL_MspInit:
  25              	.LFB66:
  26              		.file 1 "Src/stm32f1xx_hal_msp.c"
   1:Src/stm32f1xx_hal_msp.c **** /**
   2:Src/stm32f1xx_hal_msp.c ****   ******************************************************************************
   3:Src/stm32f1xx_hal_msp.c ****   * File Name          : stm32f1xx_hal_msp.c
   4:Src/stm32f1xx_hal_msp.c ****   * Description        : This file provides code for the MSP Initialization 
   5:Src/stm32f1xx_hal_msp.c ****   *                      and de-Initialization codes.
   6:Src/stm32f1xx_hal_msp.c ****   ******************************************************************************
   7:Src/stm32f1xx_hal_msp.c ****   ** This notice applies to any and all portions of this file
   8:Src/stm32f1xx_hal_msp.c ****   * that are not between comment pairs USER CODE BEGIN and
   9:Src/stm32f1xx_hal_msp.c ****   * USER CODE END. Other portions of this file, whether 
  10:Src/stm32f1xx_hal_msp.c ****   * inserted by the user or by software development tools
  11:Src/stm32f1xx_hal_msp.c ****   * are owned by their respective copyright owners.
  12:Src/stm32f1xx_hal_msp.c ****   *
  13:Src/stm32f1xx_hal_msp.c ****   * COPYRIGHT(c) 2019 STMicroelectronics
  14:Src/stm32f1xx_hal_msp.c ****   *
  15:Src/stm32f1xx_hal_msp.c ****   * Redistribution and use in source and binary forms, with or without modification,
  16:Src/stm32f1xx_hal_msp.c ****   * are permitted provided that the following conditions are met:
  17:Src/stm32f1xx_hal_msp.c ****   *   1. Redistributions of source code must retain the above copyright notice,
  18:Src/stm32f1xx_hal_msp.c ****   *      this list of conditions and the following disclaimer.
  19:Src/stm32f1xx_hal_msp.c ****   *   2. Redistributions in binary form must reproduce the above copyright notice,
  20:Src/stm32f1xx_hal_msp.c ****   *      this list of conditions and the following disclaimer in the documentation
  21:Src/stm32f1xx_hal_msp.c ****   *      and/or other materials provided with the distribution.
  22:Src/stm32f1xx_hal_msp.c ****   *   3. Neither the name of STMicroelectronics nor the names of its contributors
  23:Src/stm32f1xx_hal_msp.c ****   *      may be used to endorse or promote products derived from this software
  24:Src/stm32f1xx_hal_msp.c ****   *      without specific prior written permission.
  25:Src/stm32f1xx_hal_msp.c ****   *
  26:Src/stm32f1xx_hal_msp.c ****   * THIS SOFTWARE IS PROVIDED BY THE COPYRIGHT HOLDERS AND CONTRIBUTORS "AS IS"
  27:Src/stm32f1xx_hal_msp.c ****   * AND ANY EXPRESS OR IMPLIED WARRANTIES, INCLUDING, BUT NOT LIMITED TO, THE
  28:Src/stm32f1xx_hal_msp.c ****   * IMPLIED WARRANTIES OF MERCHANTABILITY AND FITNESS FOR A PARTICULAR PURPOSE ARE
  29:Src/stm32f1xx_hal_msp.c ****   * DISCLAIMED. IN NO EVENT SHALL THE COPYRIGHT HOLDER OR CONTRIBUTORS BE LIABLE
  30:Src/stm32f1xx_hal_msp.c ****   * FOR ANY DIRECT, INDIRECT, INCIDENTAL, SPECIAL, EXEMPLARY, OR CONSEQUENTIAL
  31:Src/stm32f1xx_hal_msp.c ****   * DAMAGES (INCLUDING, BUT NOT LIMITED TO, PROCUREMENT OF SUBSTITUTE GOODS OR
  32:Src/stm32f1xx_hal_msp.c ****   * SERVICES; LOSS OF USE, DATA, OR PROFITS; OR BUSINESS INTERRUPTION) HOWEVER
ARM GAS  /tmp/ccN1ozZs.s 			page 2


  33:Src/stm32f1xx_hal_msp.c ****   * CAUSED AND ON ANY THEORY OF LIABILITY, WHETHER IN CONTRACT, STRICT LIABILITY,
  34:Src/stm32f1xx_hal_msp.c ****   * OR TORT (INCLUDING NEGLIGENCE OR OTHERWISE) ARISING IN ANY WAY OUT OF THE USE
  35:Src/stm32f1xx_hal_msp.c ****   * OF THIS SOFTWARE, EVEN IF ADVISED OF THE POSSIBILITY OF SUCH DAMAGE.
  36:Src/stm32f1xx_hal_msp.c ****   *
  37:Src/stm32f1xx_hal_msp.c ****   ******************************************************************************
  38:Src/stm32f1xx_hal_msp.c ****   */
  39:Src/stm32f1xx_hal_msp.c **** /* Includes ------------------------------------------------------------------*/
  40:Src/stm32f1xx_hal_msp.c **** #include "stm32f1xx_hal.h"
  41:Src/stm32f1xx_hal_msp.c **** 
  42:Src/stm32f1xx_hal_msp.c **** extern void _Error_Handler(char *, int);
  43:Src/stm32f1xx_hal_msp.c **** /* USER CODE BEGIN 0 */
  44:Src/stm32f1xx_hal_msp.c **** 
  45:Src/stm32f1xx_hal_msp.c **** /* USER CODE END 0 */
  46:Src/stm32f1xx_hal_msp.c **** /**
  47:Src/stm32f1xx_hal_msp.c ****   * Initializes the Global MSP.
  48:Src/stm32f1xx_hal_msp.c ****   */
  49:Src/stm32f1xx_hal_msp.c **** void HAL_MspInit(void)
  50:Src/stm32f1xx_hal_msp.c **** {
  27              		.loc 1 50 1 view -0
  28              		.cfi_startproc
  29              		@ args = 0, pretend = 0, frame = 8
  30              		@ frame_needed = 0, uses_anonymous_args = 0
  31 0000 00B5     		push	{lr}
  32              	.LCFI0:
  33              		.cfi_def_cfa_offset 4
  34              		.cfi_offset 14, -4
  35 0002 83B0     		sub	sp, sp, #12
  36              	.LCFI1:
  37              		.cfi_def_cfa_offset 16
  51:Src/stm32f1xx_hal_msp.c ****   /* USER CODE BEGIN MspInit 0 */
  52:Src/stm32f1xx_hal_msp.c **** 
  53:Src/stm32f1xx_hal_msp.c ****   /* USER CODE END MspInit 0 */
  54:Src/stm32f1xx_hal_msp.c **** 
  55:Src/stm32f1xx_hal_msp.c ****   __HAL_RCC_AFIO_CLK_ENABLE();
  38              		.loc 1 55 3 view .LVU1
  39              	.LBB2:
  40              		.loc 1 55 3 view .LVU2
  41              		.loc 1 55 3 view .LVU3
  42 0004 244B     		ldr	r3, .L3
  43 0006 9A69     		ldr	r2, [r3, #24]
  44 0008 42F00102 		orr	r2, r2, #1
  45 000c 9A61     		str	r2, [r3, #24]
  46              		.loc 1 55 3 view .LVU4
  47 000e 9A69     		ldr	r2, [r3, #24]
  48 0010 02F00102 		and	r2, r2, #1
  49 0014 0092     		str	r2, [sp]
  50              		.loc 1 55 3 view .LVU5
  51 0016 009A     		ldr	r2, [sp]
  52              	.LBE2:
  56:Src/stm32f1xx_hal_msp.c ****   __HAL_RCC_PWR_CLK_ENABLE();
  53              		.loc 1 56 3 view .LVU6
  54              	.LBB3:
  55              		.loc 1 56 3 view .LVU7
  56              		.loc 1 56 3 view .LVU8
  57 0018 DA69     		ldr	r2, [r3, #28]
  58 001a 42F08052 		orr	r2, r2, #268435456
  59 001e DA61     		str	r2, [r3, #28]
ARM GAS  /tmp/ccN1ozZs.s 			page 3


  60              		.loc 1 56 3 view .LVU9
  61 0020 DB69     		ldr	r3, [r3, #28]
  62 0022 03F08053 		and	r3, r3, #268435456
  63 0026 0193     		str	r3, [sp, #4]
  64              		.loc 1 56 3 view .LVU10
  65 0028 019B     		ldr	r3, [sp, #4]
  66              	.LBE3:
  57:Src/stm32f1xx_hal_msp.c **** 
  58:Src/stm32f1xx_hal_msp.c ****   HAL_NVIC_SetPriorityGrouping(NVIC_PRIORITYGROUP_4);
  67              		.loc 1 58 3 view .LVU11
  68 002a 0320     		movs	r0, #3
  69 002c FFF7FEFF 		bl	HAL_NVIC_SetPriorityGrouping
  70              	.LVL0:
  59:Src/stm32f1xx_hal_msp.c **** 
  60:Src/stm32f1xx_hal_msp.c ****   /* System interrupt init*/
  61:Src/stm32f1xx_hal_msp.c ****   /* MemoryManagement_IRQn interrupt configuration */
  62:Src/stm32f1xx_hal_msp.c ****   HAL_NVIC_SetPriority(MemoryManagement_IRQn, 0, 0);
  71              		.loc 1 62 3 view .LVU12
  72 0030 0022     		movs	r2, #0
  73 0032 1146     		mov	r1, r2
  74 0034 6FF00B00 		mvn	r0, #11
  75 0038 FFF7FEFF 		bl	HAL_NVIC_SetPriority
  76              	.LVL1:
  63:Src/stm32f1xx_hal_msp.c ****   /* BusFault_IRQn interrupt configuration */
  64:Src/stm32f1xx_hal_msp.c ****   HAL_NVIC_SetPriority(BusFault_IRQn, 0, 0);
  77              		.loc 1 64 3 view .LVU13
  78 003c 0022     		movs	r2, #0
  79 003e 1146     		mov	r1, r2
  80 0040 6FF00A00 		mvn	r0, #10
  81 0044 FFF7FEFF 		bl	HAL_NVIC_SetPriority
  82              	.LVL2:
  65:Src/stm32f1xx_hal_msp.c ****   /* UsageFault_IRQn interrupt configuration */
  66:Src/stm32f1xx_hal_msp.c ****   HAL_NVIC_SetPriority(UsageFault_IRQn, 0, 0);
  83              		.loc 1 66 3 view .LVU14
  84 0048 0022     		movs	r2, #0
  85 004a 1146     		mov	r1, r2
  86 004c 6FF00900 		mvn	r0, #9
  87 0050 FFF7FEFF 		bl	HAL_NVIC_SetPriority
  88              	.LVL3:
  67:Src/stm32f1xx_hal_msp.c ****   /* SVCall_IRQn interrupt configuration */
  68:Src/stm32f1xx_hal_msp.c ****   HAL_NVIC_SetPriority(SVCall_IRQn, 0, 0);
  89              		.loc 1 68 3 view .LVU15
  90 0054 0022     		movs	r2, #0
  91 0056 1146     		mov	r1, r2
  92 0058 6FF00400 		mvn	r0, #4
  93 005c FFF7FEFF 		bl	HAL_NVIC_SetPriority
  94              	.LVL4:
  69:Src/stm32f1xx_hal_msp.c ****   /* DebugMonitor_IRQn interrupt configuration */
  70:Src/stm32f1xx_hal_msp.c ****   HAL_NVIC_SetPriority(DebugMonitor_IRQn, 0, 0);
  95              		.loc 1 70 3 view .LVU16
  96 0060 0022     		movs	r2, #0
  97 0062 1146     		mov	r1, r2
  98 0064 6FF00300 		mvn	r0, #3
  99 0068 FFF7FEFF 		bl	HAL_NVIC_SetPriority
 100              	.LVL5:
  71:Src/stm32f1xx_hal_msp.c ****   /* PendSV_IRQn interrupt configuration */
  72:Src/stm32f1xx_hal_msp.c ****   HAL_NVIC_SetPriority(PendSV_IRQn, 0, 0);
ARM GAS  /tmp/ccN1ozZs.s 			page 4


 101              		.loc 1 72 3 view .LVU17
 102 006c 0022     		movs	r2, #0
 103 006e 1146     		mov	r1, r2
 104 0070 6FF00100 		mvn	r0, #1
 105 0074 FFF7FEFF 		bl	HAL_NVIC_SetPriority
 106              	.LVL6:
  73:Src/stm32f1xx_hal_msp.c ****   /* SysTick_IRQn interrupt configuration */
  74:Src/stm32f1xx_hal_msp.c ****   HAL_NVIC_SetPriority(SysTick_IRQn, 0, 0);
 107              		.loc 1 74 3 view .LVU18
 108 0078 0022     		movs	r2, #0
 109 007a 1146     		mov	r1, r2
 110 007c 4FF0FF30 		mov	r0, #-1
 111 0080 FFF7FEFF 		bl	HAL_NVIC_SetPriority
 112              	.LVL7:
  75:Src/stm32f1xx_hal_msp.c **** 
  76:Src/stm32f1xx_hal_msp.c ****     /**NOJTAG: JTAG-DP Disabled and SW-DP Enabled 
  77:Src/stm32f1xx_hal_msp.c ****     */
  78:Src/stm32f1xx_hal_msp.c ****   __HAL_AFIO_REMAP_SWJ_NOJTAG();
 113              		.loc 1 78 3 view .LVU19
 114              	.LBB4:
 115              		.loc 1 78 3 view .LVU20
 116 0084 054A     		ldr	r2, .L3+4
 117 0086 5368     		ldr	r3, [r2, #4]
 118              	.LVL8:
 119              		.loc 1 78 3 view .LVU21
 120 0088 23F0E063 		bic	r3, r3, #117440512
 121              	.LVL9:
 122              		.loc 1 78 3 view .LVU22
 123 008c 43F00073 		orr	r3, r3, #33554432
 124              	.LVL10:
 125              		.loc 1 78 3 view .LVU23
 126 0090 5360     		str	r3, [r2, #4]
 127              	.LBE4:
  79:Src/stm32f1xx_hal_msp.c **** 
  80:Src/stm32f1xx_hal_msp.c ****   /* USER CODE BEGIN MspInit 1 */
  81:Src/stm32f1xx_hal_msp.c **** 
  82:Src/stm32f1xx_hal_msp.c ****   /* USER CODE END MspInit 1 */
  83:Src/stm32f1xx_hal_msp.c **** }
 128              		.loc 1 83 1 is_stmt 0 view .LVU24
 129 0092 03B0     		add	sp, sp, #12
 130              	.LCFI2:
 131              		.cfi_def_cfa_offset 4
 132              		@ sp needed
 133 0094 5DF804FB 		ldr	pc, [sp], #4
 134              	.L4:
 135              		.align	2
 136              	.L3:
 137 0098 00100240 		.word	1073876992
 138 009c 00000140 		.word	1073807360
 139              		.cfi_endproc
 140              	.LFE66:
 142              		.text
 143              	.Letext0:
 144              		.file 2 "/usr/arm-none-eabi/include/machine/_default_types.h"
 145              		.file 3 "/usr/arm-none-eabi/include/sys/_stdint.h"
 146              		.file 4 "Drivers/CMSIS/Include/core_cm3.h"
 147              		.file 5 "Drivers/CMSIS/Device/ST/STM32F1xx/Include/system_stm32f1xx.h"
ARM GAS  /tmp/ccN1ozZs.s 			page 5


 148              		.file 6 "Drivers/CMSIS/Device/ST/STM32F1xx/Include/stm32f103xb.h"
 149              		.file 7 "/usr/arm-none-eabi/include/sys/lock.h"
 150              		.file 8 "/usr/arm-none-eabi/include/sys/_types.h"
 151              		.file 9 "/usr/lib/gcc/arm-none-eabi/8.3.0/include/stddef.h"
 152              		.file 10 "/usr/arm-none-eabi/include/sys/reent.h"
 153              		.file 11 "Drivers/STM32F1xx_HAL_Driver/Inc/stm32f1xx_hal_cortex.h"
ARM GAS  /tmp/ccN1ozZs.s 			page 6


DEFINED SYMBOLS
                            *ABS*:0000000000000000 stm32f1xx_hal_msp.c
     /tmp/ccN1ozZs.s:16     .text.HAL_MspInit:0000000000000000 $t
     /tmp/ccN1ozZs.s:24     .text.HAL_MspInit:0000000000000000 HAL_MspInit
     /tmp/ccN1ozZs.s:137    .text.HAL_MspInit:0000000000000098 $d

UNDEFINED SYMBOLS
HAL_NVIC_SetPriorityGrouping
HAL_NVIC_SetPriority
